target datalayout = "e-m:e-p270:32:32-p271:32:32-p272:64:64-i64:64-i128:128-f80:128-n8:16:32:64-S128"
target triple = "x86_64-pc-linux-gnu"

%struct._object = type { %union.anon, ptr }
%union.anon = type { i64 }
%struct.classmethod = type { %struct._object, ptr, ptr }

; Function Attrs: nounwind uwtable
define internal i32 @cm_traverse(ptr noundef %0, ptr noundef %1, ptr noundef %2) #0 {
  %4 = alloca i32, align 4
  %5 = alloca ptr, align 8
  %6 = alloca ptr, align 8
  %7 = alloca ptr, align 8
  %8 = alloca ptr, align 8
  %9 = alloca i32, align 4
  %10 = alloca i32, align 4
  %11 = alloca i32, align 4
  store ptr %0, ptr %5, align 8, !tbaa !96
  store ptr %1, ptr %6, align 8, !tbaa !4
  store ptr %2, ptr %7, align 8, !tbaa !4
  call void @llvm.lifetime.start.p0(i64 8, ptr %8) #6
  %12 = load ptr, ptr %5, align 8, !tbaa !96
  store ptr %12, ptr %8, align 8, !tbaa !4
  br label %13

13:                                               ; preds = %3
  %14 = load ptr, ptr %8, align 8, !tbaa !4
  %15 = getelementptr inbounds nuw %struct.classmethod, ptr %14, i32 0, i32 1
  %16 = load ptr, ptr %15, align 8, !tbaa !157
  %17 = icmp ne ptr %16, null
  br i1 %17, label %18, label %33

18:                                               ; preds = %13
  call void @llvm.lifetime.start.p0(i64 4, ptr %9) #6
  %19 = load ptr, ptr %6, align 8, !tbaa !4
  %20 = load ptr, ptr %8, align 8, !tbaa !4
  %21 = getelementptr inbounds nuw %struct.classmethod, ptr %20, i32 0, i32 1
  %22 = load ptr, ptr %21, align 8, !tbaa !157
  %23 = load ptr, ptr %7, align 8, !tbaa !4
  %24 = call i32 %19(ptr noundef %22, ptr noundef %23)
  store i32 %24, ptr %9, align 4, !tbaa !10
  %25 = load i32, ptr %9, align 4, !tbaa !10
  %26 = icmp ne i32 %25, 0
  br i1 %26, label %27, label %29

27:                                               ; preds = %18
  %28 = load i32, ptr %9, align 4, !tbaa !10
  store i32 %28, ptr %4, align 4
  store i32 1, ptr %10, align 4
  br label %30

29:                                               ; preds = %18
  store i32 0, ptr %10, align 4
  br label %30

30:                                               ; preds = %29, %27
  call void @llvm.lifetime.end.p0(i64 4, ptr %9) #6
  %31 = load i32, ptr %10, align 4
  switch i32 %31, label %59 [
    i32 0, label %32
  ]

32:                                               ; preds = %30
  br label %33

33:                                               ; preds = %32, %13
  br label %34

34:                                               ; preds = %33
  br label %35

35:                                               ; preds = %34
  br label %36

36:                                               ; preds = %35
  %37 = load ptr, ptr %8, align 8, !tbaa !4
  %38 = getelementptr inbounds nuw %struct.classmethod, ptr %37, i32 0, i32 2
  %39 = load ptr, ptr %38, align 8, !tbaa !159
  %40 = icmp ne ptr %39, null
  br i1 %40, label %41, label %56

41:                                               ; preds = %36
  call void @llvm.lifetime.start.p0(i64 4, ptr %11) #6
  %42 = load ptr, ptr %6, align 8, !tbaa !4
  %43 = load ptr, ptr %8, align 8, !tbaa !4
  %44 = getelementptr inbounds nuw %struct.classmethod, ptr %43, i32 0, i32 2
  %45 = load ptr, ptr %44, align 8, !tbaa !159
  %46 = load ptr, ptr %7, align 8, !tbaa !4
  %47 = call i32 %42(ptr noundef %45, ptr noundef %46)
  store i32 %47, ptr %11, align 4, !tbaa !10
  %48 = load i32, ptr %11, align 4, !tbaa !10
  %49 = icmp ne i32 %48, 0
  br i1 %49, label %50, label %52

50:                                               ; preds = %41
  %51 = load i32, ptr %11, align 4, !tbaa !10
  store i32 %51, ptr %4, align 4
  store i32 1, ptr %10, align 4
  br label %53

52:                                               ; preds = %41
  store i32 0, ptr %10, align 4
  br label %53

53:                                               ; preds = %52, %50
  call void @llvm.lifetime.end.p0(i64 4, ptr %11) #6
  %54 = load i32, ptr %10, align 4
  switch i32 %54, label %59 [
    i32 0, label %55
  ]

55:                                               ; preds = %53
  br label %56

56:                                               ; preds = %55, %36
  br label %57

57:                                               ; preds = %56
  br label %58

58:                                               ; preds = %57
  store i32 0, ptr %4, align 4
  store i32 1, ptr %10, align 4
  br label %59

59:                                               ; preds = %58, %53, %30
  call void @llvm.lifetime.end.p0(i64 8, ptr %8) #6
  %60 = load i32, ptr %4, align 4
  ret i32 %60
}